; Function Attrs: mustprogress uwtable
define hidden noundef ptr @_ZN4ncnn16create_layer_cpuEi(i32 noundef %0) local_unnamed_addr #2 {
  %or.cond = icmp ugt i32 %0, 106
  br i1 %or.cond, label %26, label %2

2:                                                ; preds = %1
  %3 = tail call noundef i32 @_ZN4ncnn22cpu_support_x86_avx512Ev()
  %.not = icmp eq i32 %3, 0
  br i1 %.not, label %7, label %4

4:                                                ; preds = %2
  %5 = zext nneg i32 %0 to i64
  %6 = getelementptr inbounds nuw [107 x %"struct.ncnn::layer_registry_entry"], ptr @_ZN4ncnnL21layer_registry_avx512E, i64 0, i64 %5, i32 1
  br label %19

7:                                                ; preds = %2
  %8 = tail call noundef i32 @_ZN4ncnn19cpu_support_x86_fmaEv()
  %.not17 = icmp eq i32 %8, 0
  br i1 %.not17, label %12, label %9

9:                                                ; preds = %7
  %10 = zext nneg i32 %0 to i64
  %11 = getelementptr inbounds nuw [107 x %"struct.ncnn::layer_registry_entry"], ptr @_ZN4ncnnL18layer_registry_fmaE, i64 0, i64 %10, i32 1
  br label %19

12:                                               ; preds = %7
  %13 = tail call noundef i32 @_ZN4ncnn19cpu_support_x86_avxEv()
  %.not18 = icmp eq i32 %13, 0
  %14 = zext nneg i32 %0 to i64
  br i1 %.not18, label %17, label %15

15:                                               ; preds = %12
  %16 = getelementptr inbounds nuw [107 x %"struct.ncnn::layer_registry_entry"], ptr @_ZN4ncnnL18layer_registry_avxE, i64 0, i64 %14, i32 1
  br label %19

17:                                               ; preds = %12
  %18 = getelementptr inbounds nuw [107 x %"struct.ncnn::layer_registry_entry"], ptr @_ZN4ncnnL19layer_registry_archE, i64 0, i64 %14, i32 1
  br label %19

19:                                               ; preds = %9, %17, %15, %4
  %.014.in = phi ptr [ %6, %4 ], [ %11, %9 ], [ %16, %15 ], [ %18, %17 ]
  %.014 = load ptr, ptr %.014.in, align 8, !tbaa !68
  %.not19 = icmp eq ptr %.014, null
  br i1 %.not19, label %20, label %.thread

20:                                               ; preds = %19
  %21 = zext nneg i32 %0 to i64
  %22 = getelementptr inbounds nuw [107 x %"struct.ncnn::layer_registry_entry"], ptr @_ZN4ncnnL14layer_registryE, i64 0, i64 %21, i32 1
  %23 = load ptr, ptr %22, align 8, !tbaa !68
  switch i32 %0, label %.thread [
    i32 34, label %26
    i32 1, label %26
  ]

.thread:                                          ; preds = %20, %19
  %.11523 = phi ptr [ %23, %20 ], [ %.014, %19 ]
  %24 = tail call noundef ptr %.11523(ptr noundef null)
  %25 = getelementptr inbounds nuw i8, ptr %24, i64 40
  store i32 %0, ptr %25, align 8, !tbaa !51
  br label %26

26:                                               ; preds = %20, %20, %.thread, %1
  %.0 = phi ptr [ null, %1 ], [ %24, %.thread ], [ null, %20 ], [ null, %20 ]
  ret ptr %.0
}